(dp1
S'output'
p2
S''
sS'layer'
p3
S'/home/arosenfeld/Dropbox/fog_backup/web2py/applications/kpax/controllers/rh.py'
p4
sS'code'
p5
S'# coding: utf8\n# try something like\nimport ldap\n\nfog_dn = \'dc=fog,dc=icmc,dc=usp,dc=br\'\n\ndef index(): return dict(message="hello from rh.py")\n\ndef list_users():\n    con = ldap.initialize(\'ldap://fog.icmc.usp.br\')\n    users_list = con.search_s(\'ou=people,\' + fog_dn)\n    return dict(list=users_list)    \n\ndef register_user():\n    form=FORM(TABLE(\n          TR(T("First name:"), INPUT(_name="firstname",requires=IS_NOT_EMPTY())),\n          TR(T("Last name:"), INPUT(_name="lastname",requires=IS_NOT_EMPTY())),\n          TR(T("Username:"), INPUT(_name="username", requires=IS_NOT_EMPTY())),\n          TR(T("Email:"), INPUT(_name="email",requires=[IS_NOT_EMPTY(), IS_NOT_IN_DB(db,\'user.email\')])),\n          TR("Password:", INPUT(_name="password",_type=\'password\',requires=[IS_NOT_EMPTY(),CRYPT()])),\\\n                    TR("Password (again):",\\\n          INPUT(_name="password2",_type=\'password\',requires=[IS_NOT_EMPTY(),CRYPT()])),\\\n                    TR("",INPUT(_type="submit",_value="register"))))\n    if form.accepts(request.vars,session) and \\\n       form.vars.password==form.vars.password2:\n        con = ldap.initialize(\'ldap://fog.icmc.usp.br\')\n        con.simple_bind_s(\'cn=admin,\' + fog_dn, \'f0gs3rv3r\')\n        uid_list = con.search_s(\'ou=people,\' + fog_dn, ldap.SCOPE_SUBTREE, attrlist=[\'uidNumber\'])\n        uid = max([int(i[1].get(\'uidNumber\', [1000])[0]) for i in uid_list]) + 1\n        con.add_s(\'uid=%s,ou=people,\' % form.vars.username + fog_dn, \n            [(\'uid\', form.vars.username),\n             (\'objectClass\', [\'posixAccount\', \'inetOrgPerson\']),\n             (\'cn\', form.vars.firstname),\n             (\'sn\', form.vars.lastname), \n             (\'uidNumber\', str(uid)),\n             (\'gidNumber\', \'1000\'), \n             (\'homeDirectory\', \'\')])\n        response.flash = "User registered"\n        con.unbind()\n    return dict(form=form)\n\ndef list():\n\nresponse._vars=response._caller(list)\n'
p6
sS'traceback'
p7
S'Traceback (most recent call last):\n  File "/home/arosenfeld/Dropbox/fog_backup/web2py/gluon/restricted.py", line 182, in restricted\n    ccode = compile(code.replace(\'\\r\\n\', \'\\n\'), layer, \'exec\')\n  File "/home/arosenfeld/Dropbox/fog_backup/web2py/applications/kpax/controllers/rh.py", line 44\n    response._vars=response._caller(list)\n           ^\nIndentationError: expected an indented block\n'
p8
s.