(dp1
S'output'
p2
S''
sS'layer'
p3
S'/home/arosenfeld/Dropbox/fog_backup/web2py/applications/kpax/views/groups/index.html'
p4
sS'code'
p5
S'response.write(\'<!DOCTYPE html PUBLIC "-//W3C//DTD XHTML 1.0 Strict//EN" "http://www.w3.org/TR/xhtml1/DTD/xhtml1-strict.dtd">\\n<html xmlns="http://www.w3.org/1999/xhtml" xml:lang="en" lang="en">\\n<head>\\n<meta http-equiv="content-type" content="text/html; charset=utf-8" />\\n<meta name="keywords" content="\',escape=False)\nresponse.write(response.keywords)\nresponse.write(\'" />\\n<meta name="description" content="\',escape=False)\nresponse.write(response.description)\nresponse.write(\'" />\\n<title>\',escape=False)\nif response.title:\n    response.write(\'\',escape=False)\n    response.write(response.title)\n    response.write(\'\',escape=False)\nelse:\n    response.write(\'\',escape=False)\n    response.write(URL(r=request))\n    response.write(\'\',escape=False)\n    pass\nresponse.write("</title>\\n<style>\\ndiv.fluid { width: 93% !important; }\\ndiv.fixed { width: 93% !important; }\\n* { margin: 0em; padding: 0em; }\\n body { background-color: #fff; color: #585858; font-size: 11pt; font-family: helvetica; }\\n h1,h2,h3,h4,h5,h6 { font-weight: normal; letter-spacing: -1px; page-break-before: always;}\\n h2,h3,h4,h5,h6 { color: #4CBC15; }\\n br.clear { clear: both; }\\n img { padding: 3px; border: 0px }\\n img.icon { border: 0px; vertical-align: middle; }\\n img.floatTL { float: left; margin-right: 1.5em; margin-bottom: 1.5em; margin-top: 0.5em; }\\n a { text-decoration: none; color: #D21287; }\\n a:hover { text-decoration: underline; }\\n textarea { font-family: courier; }\\n ul { margin-bottom: 0.5em; }\\n li { margin-left: 2em; line-height: 1.5em; }\\n ul.myQuestions { list-style: none; }\\n li.myQuestion { background: #DDDDDD;width: 200px; margin: 5px; padding: 5px;}\\n li.myQuestionOn { background: #FFFFBB;width: 200px; margin: 5px; padding: 5px;}\\n ul.myPages { list-style: none; }\\n li.myPage { background: #DDDDDD;width: 200px; margin: 5px; padding: 5px;}\\n dt { text-decoration:none; margin-left: +10em; }\\n p { line-height: 1.8em; margin-bottom: 0.2em; }\\n .verbatim { font-family: Bitstream Vera Sans Mono,monospace; }\\n .box { border: 1px solid; padding: 3px; background-color: #eeeeee;}\\n pre { padding: 1em}\\n code { font-size: 12px; font-family: Bitstream Vera Sans Mono,monospace; }\\n table { border-spacing: 2px; }\\n tr, td, th { padding: 2px; text-align: left; vertical-align: top; } \\n #header { width:100%; height:36px; background: #195866 url(\'/",escape=False)\nresponse.write(request.application)\nresponse.write("/static/title.png\') repeat-x; }\\n #header_inner { position: relative; width: 800px; height:36px; margin: 0 auto; }\\n #header_lite { width:100%; height:36px; background: #440000 url(\'/",escape=False)\nresponse.write(request.application)\nresponse.write(\'/static/title.png\\\') repeat-x; }\\n #header_inner_lite { position: relative; width: 800px; height: 36px; margin: 0 auto; }\\n /* Logo */\\n #logo { position: absolute; bottom: 0.3em; }\\n #logo h1 { display: inline; color: #fff; font-size: 1.8em; }\\n #logo h2 { display: inline; color: #fff; font-size: 1.8em; }\\n /* Menu */\\n #menu { position: absolute; right: 0em; bottom: 0em; }\\n #menu ul { list-style: none; color: #D21287; }\\n #menu li { margin-left: 0.5em; float: left; color: #D21287;}\\n #menu li a { margin-left: 0.5em; display: block; padding: 0.5em 0.5em 0.5em 0.5em; background: #fff repeat-x; color: #185360; font-weight: bold; font-size: 1.0em; text-decoration: none;}\\n #menu li a.inactive { background: transparent; color: #D21287; border: solid 0px #185360; border-top: solid 0px #185360; }\\n /* Main */\\n #main { background: #fff 0px 1px repeat-x; }\\n #main_inner p { text-align: justify; margin-bottom: 2.0em; }\\n #main_inner ul { margin-bottom: 2.0em; }\\n #main_inner { position: relative; width: 800px; margin: 0 auto; padding-top: 1.0em; }\\n #main_inner h1 { border-bottom: dotted 1px #E1E1E1; position: relative; font-size: 2.1em; padding-bottom: 0.1em; margin-bottom: 0.8em; }\\n #main_inner .post { position: relative; }\\n #main_inner .post h3 { position: relative; font-size: 1.7em; padding-bottom: 1.2em; }\\n #main_inner .post ul.post_info { list-style: none; position: absolute; top: 3em; font-size: 0.8em; }\\n #main_inner .post ul.post_info li { background-position: 0em 0.2em; background-repeat: no-repeat; display: inline; padding-left: 18px; }\\n /* Flash */\\n .comment { border: 1px solid; background-color: #dddddd; padding: 3px; }\\n #flash { margin: 0 auto; text-align: center; clear: both; border: 1px #000000; background-color: #D21287; color: white; margin-top: 0.0em; margin-bottom: 1.0em; padding-top: 1.0em; padding-bottom: 1.0em; }\\ndiv.error { background-color: #D21287; color: white; padding: 3px; width: 300px;}\\n /* Footer */\\n #footer { width: 800px; margin: 0 auto; text-align: center; clear: both; border-top: dotted 1px #E1E1E1; margin-top: 1.0em; margin-bottom: 1.5em; padding-top: 1.0em; }\\n /* Search */\\n input.button { background: #BC4C15 repeat-x; color: #fff; border: solid 1px #DB7623; font-weight: bold; font-size: 0.8em; height: 2.0em; }\\n input.text { border: solid 1px #F1F1F1; font-size: 1.0em; padding: 0.25em 0.25em 0.25em 0.25em; }\\n /* LAYOUT - 3 COLUMNS */\\n /* Primary content */\\n #primaryContent_3columns { position: relative; margin-right: 34em; }\\n #columnA_3columns { position: relative; float: left; width: 100%; margin-right: -34em; padding-right: 2em; }\\n /* Secondary Content */\\n #secondaryContent_3columns { float: right; }\\n #columnB_3columns { width: 13.0em; float: left; padding: 0em 2em 0.5em 2em; border-left: dotted 1px #E1E1E1; }\\n #columnC_3columns { width: 13.0em; float: left; padding: 0em 0em 0.5em 2em; border-left: dotted 1px #E1E1E1; }\\n /* LAYOUT - 2 COLUMNS */\\n /* Primary content */\\n #primaryContent_2columns { position: relative; margin-right: 17em; }\\n #columnA_2columns { position: relative; float: left; width: 100%; margin-right: -17em; padding-right: 2em; }\\n /* Secondary Content */\\n #secondaryContent_2columns { float: right; }\\n #columnC_2columns { width: 13.0em; float: left; padding: 0em 0em 0.5em 2em; border-left: dotted 1px #E1E1E1; }\\n /* LAYOUT - COLUMNLESS */\\n /* Primary content */\\n #primaryContent_columnless { position: relative; }\\n #columnA_columnless { position: relative; width: 100%; }\\n /* FOR DOCTESTS RESULTS */\\nh3.failed { color: #D21287; }\\nh3.passed { color: green; }\\nh3.nodoctests { color: #888888; }\\ntable.sortable thead { background-color:#ccc; color:#D21287; font-weight: bold; cursor: default;}\\ntable.sortable tbody tr.odd td { background-color: #eee;}\\ntable.sortable tbody tr.even td { background-color: #ddd; }\\ntable.sortable tbody tr.highlight td { background-color: #FFFF99; }\\ntd.gsearch {background-color:#FFFFBB; padding: 5px}\\n</style>\\n<script type="text/javascript" src="/\',escape=False)\nresponse.write(request.application)\nresponse.write(\'/static/jquery.js"></script>\\n\',escape=False)\nimport os\nresponse.write(\'\\n\',escape=False)\nif os.access(os.path.join(request.folder,\'static\',\'ui.datepicker.js\'),os.R_OK):\n    response.write(\'\\n<link rel="stylesheet" href="/\',escape=False)\n    response.write(request.application)\n    response.write(\'/static/ui.datepicker.css" type="text/css" media="screen" title="core css file" charset="utf-8" />\\n<script src="/\',escape=False)\n    response.write(request.application)\n    response.write(\'/static/ui.datepicker.js" type="text/javascript" charset="utf-8"></script>\\n\',escape=False)\n    pass\nresponse.write(\'\\n<script type="text/javascript"><!--\\n/* Written by Massimo Di Pierro. Here for backward compatibility. */\\nfunction popup(url) {\\n  newwindow=window.open(url,\\\'name\\\',\\\'height=400,width=600\\\');\\n  if (window.focus) newwindow.focus();\\n  return false;\\n}\\nfunction collapse(id) { $(\\\'#\\\'+id).slideToggle(); }\\nfunction fade(id,value) { if(value>0) $(\\\'#\\\'+id).hide().fadeIn(\\\'slow\\\'); else $(\\\'#\\\'+id).show().fadeOut(\\\'slow\\\'); }\\nfunction ajax(u,s,t) {\\n  var query="";\\n  for(i=0; i<s.length; i++) { if(i>0) query=query+"&";\\n     query=query+encodeURIComponent(s[i])+"="+encodeURIComponent(document.getElementById(s[i]).value);\\n  }\\n  $.ajax({type: "POST", url: u, data: query, success: function(msg) { if(t!=false) document.getElementById(t).innerHTML=msg; } });\\n} \\nString.prototype.reverse = function () {return this.split(\\\'\\\').reverse().join(\\\'\\\');};\\n$(document).ready(function() {\\n$(\\\'div.error\\\').hide().slideDown(\\\'slow\\\');\\n$(\\\'#flash\\\').hide().slideDown(\\\'slow\\\').attr(\\\'onclick\\\',\\\'$(this).fadeOut();\\\');\\n$(\\\'input.integer\\\').attr(\\\'onkeyup\\\',"this.value=this.value.reverse().replace(/[^0-9\\\\-]|\\\\-(?=.)/g,\\\'\\\').reverse();");\\n$(\\\'input.double\\\').attr(\\\'onkeyup\\\',"this.value=this.value.reverse().replace(/[^0-9\\\\-\\\\.]|[\\\\-](?=.)|[\\\\.](?=[0-9]*[\\\\.])/g,\\\'\\\').reverse();");\\ntry {$("input.date").datepicker({dateFormat: \\\'\',escape=False)\nresponse.write(T(\'yy-mm-dd\'))\nresponse.write(\'\\\'});} catch(e) {};\\n});\\n//--></script>\\n<script><!--\\n$(document).ready(function(){\\n$(\\\'body\\\').hide().fadeIn(\\\'fast\\\');\\n$(\\\'textarea\\\').attr(\\\'cols\\\',\\\'100\\\');\\n$(\\\'input.string\\\').attr(\\\'size\\\',\\\'60\\\');\\n$(\\\'.delete\\\').attr(\\\'onclick\\\',\\\'if(this.checked) if(!confirm("Sure you want to delete this object?")) this.checked=false;\\\');\\n});\\n//--></script>\\n</head>\\n<body>\\n<div id="header">\\n <div id="header_inner" class="fixed">\\n   <div id="logo">\\n     \\n   </div>\\n   \',escape=False)\nif response.menu:\n    response.write(\'\\n   <div id="menu">\\n   <ul>\\n    \',escape=False)\n    for _name,_active,_link in response.menu:\n        response.write(\'\\n    <li><a href="\',escape=False)\n        response.write(_link)\n        response.write(\'" onmouseover="this.ccc=this.style.backgroundColor;this.style.backgroundColor=\\\'white\\\';" onMouseOut="this.style.backgroundColor=this.ccc;" \',escape=False)\n        if not _active:\n            response.write(\'class="inactive"\',escape=False)\n            pass\n        response.write(\'>\',escape=False)\n        response.write(_name)\n        response.write(\'</a></li>\\n    \',escape=False)\n        pass\n    response.write(\'\\n   </ul>\\n   </div>\\n   \',escape=False)\n    pass\nresponse.write(\'\\n  </div>\\n</div>\\n\\n<div id="main">\\n  <div id="main_inner" class="fixed">\\n    <div id="primaryContent_columnless">\\n      <div id="columnA_columnless">  \\n \\n        \',escape=False)\nif session.token:\n    response.write(\'\',escape=False)\n    response.write(T("Hi"))\n    response.write(\' \',escape=False)\n    response.write(session.user_name)\n    response.write(\' [<a href="\',escape=False)\n    response.write(URL(r=request,c=\'cas\',f=\'edit_profile\'))\n    response.write(\'">profile</a>][<a href="\',escape=False)\n    response.write(URL(r=request,c=\'default\',f=\'logout\'))\n    response.write(\'">logout</a>]\',escape=False)\n    pass\nresponse.write(\'<br/><br/>\\n        \',escape=False)\nif response.flash:\n    response.write(\'\\n        <div id="flash">\',escape=False)\n    response.write(response.flash)\n    response.write(\'</div>\\n        \',escape=False)\n    pass\nresponse.write(\'\\n        \\n\\n<h1>Groups</h1>\\n\\n<img src="\',escape=False)\nresponse.write(URL(r=request,c=\'static\',f=\'group/group.png\'))\nresponse.write(\'" align="right"/>\\n\\n<h2>You are member of the following groups</h2>\\n[<a href="\',escape=False)\nresponse.write(URL(r=request,f=\'create_group\'))\nresponse.write(\'">create group</a>]\\n<br/>\\n\',escape=False)\nif len(mygroups):\n    response.write(\'\\n<table>\\n\',escape=False)\n    for a in mygroups:\n        response.write(\'\\n<tr>\\n<td>[G\',escape=False)\n        response.write(a.users_group.id)\n        response.write(\']</td><td><a onclick="$(\\\'#a\',escape=False)\n        response.write(a.users_group.id)\n        response.write(\'\\\').slideToggle();">\',escape=False)\n        response.write(a.users_group.name)\n        response.write(\'</a> managed by <a href="mailto:\',escape=False)\n        response.write(a.user.email)\n        response.write(\'">\',escape=False)\n        response.write(a.user.name)\n        response.write(\'</a> on \',escape=False)\n        response.write(a.users_group.created_on)\n        response.write(\'\\n\',escape=False)\n        if a.users_group.owner!=user_id:\n            response.write(\'\\n[\',escape=False)\n            response.write(A(\'X\',_href=URL(r=request,f=\'unjoin\',args=str(a.users_group.id))))\n            response.write(\']\\n\',escape=False)\n            pass\n        response.write(\'\\n<br/>\\n<div id="a\',escape=False)\n        response.write(a.users_group.id)\n        response.write(\'" class="box">\\n\',escape=False)\n        response.write(XML(a.users_group.description))\n        response.write(\'\\n<br/>\\n\',escape=False)\n        if a.users_group.owner==user_id:\n            response.write(\'\\n[<a href="\',escape=False)\n            response.write(URL(r=request,c=\'access\',f=\'change\',args=[\'users_group\',a.users_group.id],vars=dict(forward=URL(r=request))))\n            response.write(\'">change permissions</a>][<a href="\',escape=False)\n            response.write(URL(r=request,f=\'members\',args=[a.users_group.id]))\n            response.write(\'">members</a>][<a href="\',escape=False)\n            response.write(URL(r=request,f=\'approve\',args=[a.users_group.id]))\n            response.write(\'">pending members</a>][<a href="\',escape=False)\n            response.write(URL(r=request,f=\'edit_group\',args=[a.users_group.id]))\n            response.write(\'">edit</a>]\\n\',escape=False)\n            pass\n        response.write("\\n</div>\\n<script><!--\\n$(\'#a",escape=False)\n        response.write(a.users_group.id)\n        response.write("\').hide();\\n//--></script>\\n</td></tr>\\n",escape=False)\n        pass\n    response.write(\'\\n</table>\\n\',escape=False)\nelse:\n    response.write(\'\\nno groups yet\\n\',escape=False)\n    pass\nresponse.write(\'\\n<br/>\\n<h2>Join a group</h2>\\nGroup id (for example G1): \',escape=False)\nresponse.write(form)\nresponse.write(\'\\n\\n\\n      </div>\\n    </div>\\n  </div>\\n</div>\\n<div id="footer" class="fixed">\\nKPAX is powered by <a href="http://www.web2py.com">web2py</a> (TM) &copy; 2007, 2008\\n</div>\\n\',escape=False)\nif session.token:\n    response.write(\'\\n<link rel="stylesheet" type="text/css" href="/\',escape=False)\n    response.write(request.application)\n    response.write(\'/static/fisheye-menu.css" />\\n<script type="text/javascript" src="/\',escape=False)\n    response.write(request.application)\n    response.write(\'/static/fisheye.js"></script>\\n<div style="position: absolute; left: 0px; top: 0px;">\\n<ul id="fisheye_menu">\\n  <li id="fisheye_menu"><a href="/\',escape=False)\n    response.write(request.application)\n    response.write(\'"><img src="/\',escape=False)\n    response.write(request.application)\n    response.write(\'/default/menu_image/small/\',escape=False)\n    response.write(T("Home"))\n    response.write(\'"/><span>Home</span></a></li>\\n  <li id="fisheye_menu"><a href="/\',escape=False)\n    response.write(request.application)\n    response.write(\'/news"><img src="/\',escape=False)\n    response.write(request.application)\n    response.write(\'/default/menu_image/small/\',escape=False)\n    response.write(T("News"))\n    response.write(\'"/><span>Post and Read News Announcements</span></a></li>\\n  <li id="fisheye_menu"><a href="/\',escape=False)\n    response.write(request.application)\n    response.write(\'"><img src="/\',escape=False)\n    response.write(request.application)\n    response.write(\'/default/menu_image/small/\',escape=False)\n    response.write(T("Meetings"))\n    response.write(\'"/><span>Reunioes</span></a></li>\\n  <li id="fisheye_menu"><a href="/\',escape=False)\n    response.write(request.application)\n    response.write(\'/folders"><img src="/\',escape=False)\n    response.write(request.application)\n    response.write(\'/default/menu_image/small/\',escape=False)\n    response.write(T("Files"))\n    response.write(\'"  /><span>Create and Manage Folders, Documents, Wikis, Blogs</span></a></li>\\n  <li id="fisheye_menu"><a href="/\',escape=False)\n    response.write(request.application)\n    response.write(\'/surveys"><img src="/\',escape=False)\n    response.write(request.application)\n    response.write(\'/default/menu_image/small/\',escape=False)\n    response.write(T("Surveys"))\n    response.write(\'"  /><span>Create and Manage Surveys, Assignments</span></a></li>\\n  <!-- <li id="fisheye_menu"><a href="/\',escape=False)\n    response.write(request.application)\n    response.write(\'/tasks"><img src="/\',escape=False)\n    response.write(request.application)\n    response.write(\'/static/main_images/main_tasks_small.png"  /><span>Assign Tasks and Grades</span></a></li> //-->\\n  <li id="fisheye_menu"><a href="/\',escape=False)\n    response.write(request.application)\n    response.write(\'/chats"><img src="/\',escape=False)\n    response.write(request.application)\n    response.write(\'/default/menu_image/small/\',escape=False)\n    response.write(T("Chats"))\n    response.write(\'"  /><span>Create and Join Chat Lines</span></a></li>\\n  <li id="fisheye_menu"><a href="/\',escape=False)\n    response.write(request.application)\n    response.write(\'/groups"><img src="/\',escape=False)\n    response.write(request.application)\n    response.write(\'/default/menu_image/small/\',escape=False)\n    response.write(T("Groups"))\n    response.write(\'"  /><span>Create and Manage Groups</span></a></li>\\n  </ul>\\n  </div>\\n\',escape=False)\n    pass\nresponse.write(\'\\n\\n</body>\\n</html>\',escape=False)'
p6
sS'traceback'
p7
S'Traceback (most recent call last):\n  File "/home/arosenfeld/Dropbox/fog_backup/web2py/gluon/restricted.py", line 184, in restricted\n    exec ccode in environment\n  File "/home/arosenfeld/Dropbox/fog_backup/web2py/applications/kpax/views/groups/index.html", line 84, in <module>\n  File "/home/arosenfeld/Dropbox/fog_backup/web2py/gluon/sql.py", line 617, in __getattr__\n    return dict.__getitem__(self,key)\nKeyError: \'name\'\n'
p8
s.