(dp1
S'normalize_score_to'
p2
S'DOUBLE'
p3
sS'description'
p4
S'TEXT'
p5
sS'title'
p6
S'CHAR(512)'
p7
sS'timestamp'
p8
S'TIMESTAMP'
p9
sS'stop'
p10
S'DATE'
p11
sS'is_assignment'
p12
S'CHAR(1)'
p13
sS'start'
p14
S'DATE'
p15
sS'anonymous'
p16
S'CHAR(1)'
p17
sS'owner'
p18
S'REFERENCES user(id) ON DELETE CASCADE'
p19
sS'id'
p20
S'INTEGER PRIMARY KEY AUTOINCREMENT'
p21
s.