(dp1
S'description'
p2
S'TEXT'
p3
sS'created_on'
p4
S'TIMESTAMP'
p5
sS'owner'
p6
S'REFERENCES user(id) ON DELETE CASCADE'
p7
sS'open'
p8
S'CHAR(1)'
p9
sS'id'
p10
S'INTEGER PRIMARY KEY AUTOINCREMENT'
p11
sS'name'
p12
S'CHAR(512)'
p13
s.