(dp1
S'body'
p2
S'TEXT'
p3
sS'modified_by'
p4
S'REFERENCES user(id) ON DELETE CASCADE'
p5
sS'title'
p6
S'CHAR(512)'
p7
sS'page'
p8
S'REFERENCES page(id) ON DELETE CASCADE'
p9
sS'modified_on'
p10
S'TIMESTAMP'
p11
sS'id'
p12
S'INTEGER PRIMARY KEY AUTOINCREMENT'
p13
s.