(dp1
S'body'
p2
S'TEXT'
p3
sS'posted_by'
p4
S'REFERENCES user(id) ON DELETE CASCADE'
p5
sS'chat_line'
p6
S'REFERENCES chat_line(id) ON DELETE CASCADE'
p7
sS'id'
p8
S'INTEGER PRIMARY KEY AUTOINCREMENT'
p9
sS'posted_on'
p10
S'TIMESTAMP'
p11
s.