(dp1
S'title'
p2
S'CHAR(512)'
p3
sS'uploaded_on'
p4
S'TIMESTAMP'
p5
sS'page'
p6
S'REFERENCES page(id) ON DELETE CASCADE'
p7
sS'file'
p8
S'CHAR(512)'
p9
sS'uploaded_by'
p10
S'REFERENCES user(id) ON DELETE CASCADE'
p11
sS'id'
p12
S'INTEGER PRIMARY KEY AUTOINCREMENT'
p13
s.