(dp1
S'membership_type'
p2
S'CHAR(512)'
p3
sS'users_group'
p4
S'REFERENCES users_group(id) ON DELETE CASCADE'
p5
sS'id'
p6
S'INTEGER PRIMARY KEY AUTOINCREMENT'
p7
sS'user'
p8
S'REFERENCES user(id) ON DELETE CASCADE'
p9
s.