(dp1
S'description'
p2
S'TEXT'
p3
sS'owner'
p4
S'REFERENCES user(id) ON DELETE CASCADE'
p5
sS'created_on'
p6
S'TIMESTAMP'
p7
sS'is_open'
p8
S'CHAR(1)'
p9
sS'keywords'
p10
S'CHAR(128)'
p11
sS'id'
p12
S'INTEGER PRIMARY KEY AUTOINCREMENT'
p13
sS'name'
p14
S'CHAR(512)'
p15
s.